Certificate:
    Data:
        Version: 3 (0x2)
        Serial Number: 0 (0x0)
    Signature Algorithm: sha256WithRSAEncryption
        Issuer: C=AU, ST=Some-State, O=Internet Widgits Pty Ltd, CN=x-xxxx
        Validity
            Not Before: Aug 11 05:10:25 2018 GMT
            Not After : Aug 11 05:10:25 2019 GMT
        Subject: C=AU, ST=Some-State, O=Internet Widgits Pty Ltd, CN=x-xxxx
        Subject Public Key Info:
            Public Key Algorithm: rsaEncryption
                Public-Key: (2048 bit)
                Modulus:
                    00:d8:dd:79:bc:c9:78:51:6e:e2:44:29:5b:d0:20:
                    31:3c:d6:cf:44:e9:0a:5d:22:a7:78:66:19:86:17:
                    1a:05:5d:77:84:52:9e:ab:51:0b:7c:68:b2:aa:1f:
                    d1:48:6f:f2:0d:66:51:e7:3f:27:51:1a:14:1a:1b:
                    9c:23:d2:13:64:81:f8:01:5f:9e:0f:bd:c7:ba:65:
                    6b:b8:2e:f4:47:67:c0:12:42:2d:dc:c4:9f:04:16:
                    77:a4:1d:49:6d:85:b4:07:27:75:06:e4:70:6d:ae:
                    67:4b:a9:f3:8d:70:74:e9:64:60:37:a4:ca:07:4d:
                    2b:d2:fc:3e:bd:4d:b1:c8:74:98:ed:13:bd:50:e8:
                    86:bf:06:63:49:c7:c9:a9:6b:27:7c:fe:30:f5:7c:
                    2b:10:8a:6d:bd:a2:29:6b:f0:26:ad:87:a8:29:77:
                    8d:de:2c:69:dc:3e:20:50:cf:04:49:d4:02:23:c8:
                    8a:b6:b0:f2:fe:06:ea:90:93:64:a3:03:5b:01:bf:
                    8b:df:9b:76:38:5b:0c:9b:b2:ca:7b:8d:2c:bd:8a:
                    28:d8:69:a0:85:c4:44:56:bb:76:97:c0:d8:7d:0f:
                    18:67:20:30:da:ee:ab:4a:e4:b5:48:5d:5b:2a:51:
                    b2:a2:c8:4b:c8:66:9b:bf:38:47:db:c1:8c:ff:e6:
                    67:09
                Exponent: 65537 (0x10001)
        X509v3 extensions:
            X509v3 Basic Constraints: 
                CA:FALSE
            Netscape Comment: 
                OpenSSL Generated Certificate
            X509v3 Subject Key Identifier: 
                4A:CB:3D:69:76:C5:B9:0F:76:DB:10:EB:6A:47:7B:69:D5:84:05:4C
            X509v3 Authority Key Identifier: 
                keyid:51:CD:A5:AE:52:9C:B8:A6:5D:67:65:E3:5D:F3:8C:20:83:93:C3:7D

    Signature Algorithm: sha256WithRSAEncryption
         27:9d:6b:7e:20:d3:3d:c3:67:27:f6:2e:46:43:47:6a:13:d3:
         38:36:8b:82:e1:45:22:97:b8:b6:9d:6b:ca:c1:f9:4b:61:90:
         7c:a2:0c:66:f9:38:5f:d1:fe:0d:e4:7a:bf:e4:42:48:4a:b9:
         a5:ad:12:3a:01:8a:2e:0a:61:00:35:29:99:9c:8d:c9:8a:57:
         d4:32:11:fc:11:e2:29:dd:e9:7a:60:d9:24:0a:2a:4a:aa:6a:
         6b:ef:70:dd:7a:34:d5:bf:51:00:fe:cb:2e:bf:5a:f5:82:43:
         7f:7f:3c:15:17:8e:74:d5:55:a9:e9:9d:d2:bd:e2:99:22:d2:
         a4:6e:37:1d:12:0c:09:3f:a6:68:48:3d:f0:09:ad:02:32:a6:
         e8:06:87:a3:ef:3a:db:a0:1a:f8:f8:04:36:08:af:5f:d9:68:
         be:9a:c1:1f:df:6f:75:3d:09:58:eb:5e:d6:32:99:b5:87:03:
         8d:8e:cd:6f:bd:51:ea:a8:c2:c6:93:da:e5:bd:be:b4:15:f5:
         5b:4e:13:f9:23:2b:9a:22:aa:53:5d:4f:03:7e:33:33:4f:bf:
         18:d4:43:dd:7f:14:07:d1:bf:06:ee:15:1f:9d:73:f2:ad:67:
         54:3c:4e:12:3d:88:0e:a4:03:6f:95:ca:75:f4:65:0d:68:95:
         f2:6d:f1:76
-----BEGIN CERTIFICATE-----
MIIDojCCAoqgAwIBAgIBADANBgkqhkiG9w0BAQsFADBWMQswCQYDVQQGEwJBVTET
MBEGA1UECAwKU29tZS1TdGF0ZTEhMB8GA1UECgwYSW50ZXJuZXQgV2lkZ2l0cyBQ
dHkgTHRkMQ8wDQYDVQQDDAZ4LXh4eHgwHhcNMTgwODExMDUxMDI1WhcNMTkwODEx
MDUxMDI1WjBWMQswCQYDVQQGEwJBVTETMBEGA1UECAwKU29tZS1TdGF0ZTEhMB8G
A1UECgwYSW50ZXJuZXQgV2lkZ2l0cyBQdHkgTHRkMQ8wDQYDVQQDDAZ4LXh4eHgw
ggEiMA0GCSqGSIb3DQEBAQUAA4IBDwAwggEKAoIBAQDY3Xm8yXhRbuJEKVvQIDE8
1s9E6QpdIqd4ZhmGFxoFXXeEUp6rUQt8aLKqH9FIb/INZlHnPydRGhQaG5wj0hNk
gfgBX54Pvce6ZWu4LvRHZ8ASQi3cxJ8EFnekHUlthbQHJ3UG5HBtrmdLqfONcHTp
ZGA3pMoHTSvS/D69TbHIdJjtE71Q6Ia/BmNJx8mpayd8/jD1fCsQim29oilr8Cat
h6gpd43eLGncPiBQzwRJ1AIjyIq2sPL+BuqQk2SjA1sBv4vfm3Y4Wwybssp7jSy9
iijYaaCFxERWu3aXwNh9DxhnIDDa7qtK5LVIXVsqUbKiyEvIZpu/OEfbwYz/5mcJ
AgMBAAGjezB5MAkGA1UdEwQCMAAwLAYJYIZIAYb4QgENBB8WHU9wZW5TU0wgR2Vu
ZXJhdGVkIENlcnRpZmljYXRlMB0GA1UdDgQWBBRKyz1pdsW5D3bbEOtqR3tp1YQF
TDAfBgNVHSMEGDAWgBRRzaWuUpy4pl1nZeNd84wgg5PDfTANBgkqhkiG9w0BAQsF
AAOCAQEAJ51rfiDTPcNnJ/YuRkNHahPTODaLguFFIpe4tp1rysH5S2GQfKIMZvk4
X9H+DeR6v+RCSEq5pa0SOgGKLgphADUpmZyNyYpX1DIR/BHiKd3pemDZJAoqSqpq
a+9w3Xo01b9RAP7LLr9a9YJDf388FReOdNVVqemd0r3imSLSpG43HRIMCT+maEg9
8AmtAjKm6AaHo+8626Aa+PgENgivX9lovprBH99vdT0JWOte1jKZtYcDjY7Nb71R
6qjCxpPa5b2+tBX1W04T+SMrmiKqU11PA34zM0+/GNRD3X8UB9G/Bu4VH51z8q1n
VDxOEj2IDqQDb5XKdfRlDWiV8m3xdg==
-----END CERTIFICATE-----
